target datalayout = "e-m:e-p270:32:32-p271:32:32-p272:64:64-i64:64-i128:128-f80:128-n8:16:32:64-S128"
target triple = "x86_64-unknown-linux-gnu"

%"class.google::protobuf::MessageLite" = type { ptr, %"class.google::protobuf::internal::InternalMetadata" }
%"class.google::protobuf::internal::InternalMetadata" = type { i64 }

; Function Attrs: mustprogress nounwind uwtable
define linkonce_odr hidden noundef ptr @_ZNK6google8protobuf8internal16InternalMetadata8PtrValueINS0_5ArenaEEEPT_v(ptr noundef nonnull align 8 dereferenceable(8) %this) #4 comdat align 2 {
entry:
  %this.addr = alloca ptr, align 8
  store ptr %this, ptr %this.addr, align 8
  %this1 = load ptr, ptr %this.addr, align 8
  %ptr_ = getelementptr inbounds %"class.google::protobuf::internal::InternalMetadata", ptr %this1, i32 0, i32 0
  %0 = load i64, ptr %ptr_, align 8
  %and = and i64 %0, -2
  %1 = inttoptr i64 %and to ptr
  ret ptr %1
}

; Function Attrs: mustprogress nounwind uwtable
define linkonce_odr hidden noundef ptr @_ZNK6google8protobuf8internal16InternalMetadata8PtrValueINS2_13ContainerBaseEEEPT_v(ptr noundef nonnull align 8 dereferenceable(8) %this) #4 comdat align 2 {
entry:
  %this.addr = alloca ptr, align 8
  store ptr %this, ptr %this.addr, align 8
  %this1 = load ptr, ptr %this.addr, align 8
  %ptr_ = getelementptr inbounds %"class.google::protobuf::internal::InternalMetadata", ptr %this1, i32 0, i32 0
  %0 = load i64, ptr %ptr_, align 8
  %and = and i64 %0, -2
  %1 = inttoptr i64 %and to ptr
  ret ptr %1
}

; Function Attrs: mustprogress uwtable
define linkonce_odr hidden noundef ptr @_ZNK6google8protobuf7Message3NewEv(ptr noundef nonnull align 8 dereferenceable(16) %this) #5 comdat align 2 {
entry:
  %this.addr = alloca ptr, align 8
  store ptr %this, ptr %this.addr, align 8
  %this1 = load ptr, ptr %this.addr, align 8
  %vtable = load ptr, ptr %this1, align 8
  %vfn = getelementptr inbounds ptr, ptr %vtable, i64 2
  %0 = load ptr, ptr %vfn, align 8
  %call = call noundef ptr %0(ptr noundef nonnull align 8 dereferenceable(16) %this1, ptr noundef null)
  ret ptr %call
}

; Function Attrs: mustprogress uwtable
define linkonce_odr hidden noundef ptr @_ZNK6google8protobuf11MessageLite8GetArenaEv(ptr noundef nonnull align 8 dereferenceable(16) %this) #5 comdat align 2 {
entry:
  %this.addr.i2 = alloca ptr, align 8
  %this.addr.i.i = alloca ptr, align 8
  %retval.i = alloca ptr, align 8
  %this.addr.i = alloca ptr, align 8
  %this.addr = alloca ptr, align 8
  store ptr %this, ptr %this.addr, align 8
  %this1 = load ptr, ptr %this.addr, align 8
  %_internal_metadata_ = getelementptr inbounds %"class.google::protobuf::MessageLite", ptr %this1, i32 0, i32 1
  store ptr %_internal_metadata_, ptr %this.addr.i, align 8
  %this1.i = load ptr, ptr %this.addr.i, align 8
  store ptr %this1.i, ptr %this.addr.i.i, align 8
  %this1.i.i = load ptr, ptr %this.addr.i.i, align 8
  store ptr %this1.i.i, ptr %this.addr.i2, align 8
  %this1.i3 = load ptr, ptr %this.addr.i2, align 8
  %0 = load i64, ptr %this1.i3, align 8
  %and.i = and i64 %0, 1
  %tobool.i = icmp ne i64 %and.i, 0
  br i1 %tobool.i, label %if.then.i, label %if.else.i

if.then.i:                                        ; preds = %entry
  %call2.i = call noundef ptr @_ZNK6google8protobuf8internal16InternalMetadata8PtrValueINS2_13ContainerBaseEEEPT_v(ptr noundef nonnull align 8 dereferenceable(8) %this1.i)
  %1 = load ptr, ptr %call2.i, align 8
  store ptr %1, ptr %retval.i, align 8
  br label %_ZNK6google8protobuf8internal16InternalMetadata5arenaEv.exit

if.else.i:                                        ; preds = %entry
  %call3.i = call noundef ptr @_ZNK6google8protobuf8internal16InternalMetadata8PtrValueINS0_5ArenaEEEPT_v(ptr noundef nonnull align 8 dereferenceable(8) %this1.i)
  store ptr %call3.i, ptr %retval.i, align 8
  br label %_ZNK6google8protobuf8internal16InternalMetadata5arenaEv.exit

_ZNK6google8protobuf8internal16InternalMetadata5arenaEv.exit: ; preds = %if.else.i, %if.then.i
  %2 = load ptr, ptr %retval.i, align 8
  ret ptr %2
}

; Function Attrs: mustprogress uwtable
define noundef ptr @_ZNK6google8protobuf10Reflection14ReleaseMessageEPNS0_7MessageEPKNS0_15FieldDescriptorEPNS0_14MessageFactoryE(ptr noundef nonnull align 8 dereferenceable(112) %this, ptr noundef %message, ptr noundef %field, ptr noundef %factory) #5 align 2 {
entry:
  %this.addr = alloca ptr, align 8
  %message.addr = alloca ptr, align 8
  %field.addr = alloca ptr, align 8
  %factory.addr = alloca ptr, align 8
  %released = alloca ptr, align 8
  %copy_from_arena = alloca ptr, align 8
  store ptr %this, ptr %this.addr, align 8
  store ptr %message, ptr %message.addr, align 8
  store ptr %field, ptr %field.addr, align 8
  store ptr %factory, ptr %factory.addr, align 8
  %this1 = load ptr, ptr %this.addr, align 8
  %0 = load ptr, ptr %message.addr, align 8
  %1 = load ptr, ptr %field.addr, align 8
  %2 = load ptr, ptr %factory.addr, align 8
  %call = call noundef ptr @_ZNK6google8protobuf10Reflection25UnsafeArenaReleaseMessageEPNS0_7MessageEPKNS0_15FieldDescriptorEPNS0_14MessageFactoryE(ptr noundef nonnull align 8 dereferenceable(112) %this1, ptr noundef %0, ptr noundef %1, ptr noundef %2)
  store ptr %call, ptr %released, align 8
  %3 = load ptr, ptr %message.addr, align 8
  %call2 = call noundef ptr @_ZNK6google8protobuf11MessageLite8GetArenaEv(ptr noundef nonnull align 8 dereferenceable(16) %3)
  %cmp = icmp ne ptr %call2, null
  br i1 %cmp, label %land.lhs.true, label %if.end

land.lhs.true:                                    ; preds = %entry
  %4 = load ptr, ptr %released, align 8
  %cmp3 = icmp ne ptr %4, null
  br i1 %cmp3, label %if.then, label %if.end

if.then:                                          ; preds = %land.lhs.true
  %5 = load ptr, ptr %released, align 8
  %call4 = call noundef ptr @_ZNK6google8protobuf7Message3NewEv(ptr noundef nonnull align 8 dereferenceable(16) %5)
  store ptr %call4, ptr %copy_from_arena, align 8
  %6 = load ptr, ptr %copy_from_arena, align 8
  %7 = load ptr, ptr %released, align 8
  call void @_ZN6google8protobuf7Message8CopyFromERKS1_(ptr noundef nonnull align 8 dereferenceable(16) %6, ptr noundef nonnull align 8 dereferenceable(16) %7)
  %8 = load ptr, ptr %copy_from_arena, align 8
  store ptr %8, ptr %released, align 8
  br label %if.end

if.end:                                           ; preds = %if.then, %land.lhs.true, %entry
  %9 = load ptr, ptr %released, align 8
  ret ptr %9
}