; Function Attrs: mustprogress uwtable
define noundef ptr @_ZNK6google8protobuf10Reflection14ReleaseMessageEPNS0_7MessageEPKNS0_15FieldDescriptorEPNS0_14MessageFactoryE(ptr noundef nonnull align 8 dereferenceable(112) %this, ptr noundef %message, ptr noundef %field, ptr noundef %factory) local_unnamed_addr #4 align 2 {
entry:
  %call = tail call noundef ptr @_ZNK6google8protobuf10Reflection25UnsafeArenaReleaseMessageEPNS0_7MessageEPKNS0_15FieldDescriptorEPNS0_14MessageFactoryE(ptr noundef nonnull align 8 dereferenceable(112) %this, ptr noundef %message, ptr noundef %field, ptr noundef %factory)
  %_internal_metadata_.i = getelementptr inbounds i8, ptr %message, i64 8
  %0 = load i64, ptr %_internal_metadata_.i, align 8
  %and.i.i = and i64 %0, 1
  %tobool.i.not.i = icmp eq i64 %and.i.i, 0
  br i1 %tobool.i.not.i, label %if.else.i.i, label %if.then.i.i

if.then.i.i:                                      ; preds = %entry
  %and.i1.i = and i64 %0, -2
  %1 = inttoptr i64 %and.i1.i to ptr
  %2 = load ptr, ptr %1, align 8
  br label %_ZNK6google8protobuf11MessageLite8GetArenaEv.exit

if.else.i.i:                                      ; preds = %entry
  %3 = inttoptr i64 %0 to ptr
  br label %_ZNK6google8protobuf11MessageLite8GetArenaEv.exit

_ZNK6google8protobuf11MessageLite8GetArenaEv.exit: ; preds = %if.then.i.i, %if.else.i.i
  %retval.i.0.i = phi ptr [ %2, %if.then.i.i ], [ %3, %if.else.i.i ]
  %cmp = icmp ne ptr %retval.i.0.i, null
  %cmp3 = icmp ne ptr %call, null
  %or.cond = and i1 %cmp3, %cmp
  br i1 %or.cond, label %if.then, label %if.end

if.then:                                          ; preds = %_ZNK6google8protobuf11MessageLite8GetArenaEv.exit
  %vtable.i = load ptr, ptr %call, align 8
  %vfn.i = getelementptr inbounds i8, ptr %vtable.i, i64 16
  %4 = load ptr, ptr %vfn.i, align 8
  %call.i = tail call noundef ptr %4(ptr noundef nonnull align 8 dereferenceable(16) %call, ptr noundef null)
  tail call void @_ZN6google8protobuf7Message8CopyFromERKS1_(ptr noundef nonnull align 8 dereferenceable(16) %call.i, ptr noundef nonnull align 8 dereferenceable(16) %call)
  br label %if.end

if.end:                                           ; preds = %if.then, %_ZNK6google8protobuf11MessageLite8GetArenaEv.exit
  %released.0 = phi ptr [ %call.i, %if.then ], [ %call, %_ZNK6google8protobuf11MessageLite8GetArenaEv.exit ]
  ret ptr %released.0
}